; Function Attrs: nounwind uwtable
define range(i32 -3, 1) i32 @CVodeSetJacEvalFrequency(ptr noundef %0, i64 noundef %1) local_unnamed_addr #0 {
  %3 = icmp eq ptr %0, null
  br i1 %3, label %4, label %5

4:                                                ; preds = %2
  tail call void (ptr, i32, i32, ptr, ptr, ptr, ...) @cvProcessError(ptr noundef null, i32 noundef -1, i32 noundef 1930, ptr noundef nonnull @__func__.CVodeSetJacEvalFrequency, ptr noundef nonnull @.str, ptr noundef nonnull @.str.1) #13
  br label %cvLs_AccessLMem.exit.thread

5:                                                ; preds = %2
  %6 = getelementptr inbounds nuw i8, ptr %0, i64 1040
  %7 = load ptr, ptr %6, align 8, !tbaa !69
  %8 = icmp eq ptr %7, null
  br i1 %8, label %9, label %cvLs_AccessLMem.exit

9:                                                ; preds = %5
  tail call void (ptr, i32, i32, ptr, ptr, ptr, ...) @cvProcessError(ptr noundef nonnull %0, i32 noundef -2, i32 noundef 1937, ptr noundef nonnull @__func__.CVodeSetJacEvalFrequency, ptr noundef nonnull @.str, ptr noundef nonnull @.str.30) #13
  br label %cvLs_AccessLMem.exit.thread

cvLs_AccessLMem.exit:                             ; preds = %5
  %10 = icmp slt i64 %1, 0
  br i1 %10, label %11, label %12

11:                                               ; preds = %cvLs_AccessLMem.exit
  tail call void (ptr, i32, i32, ptr, ptr, ptr, ...) @cvProcessError(ptr noundef nonnull %0, i32 noundef -3, i32 noundef 414, ptr noundef nonnull @__func__.CVodeSetJacEvalFrequency, ptr noundef nonnull @.str, ptr noundef nonnull @.str.14) #13
  br label %cvLs_AccessLMem.exit.thread

12:                                               ; preds = %cvLs_AccessLMem.exit
  %13 = icmp eq i64 %1, 0
  %14 = select i1 %13, i64 51, i64 %1
  %15 = getelementptr inbounds nuw i8, ptr %7, i64 128
  store i64 %14, ptr %15, align 8, !tbaa !55
  br label %cvLs_AccessLMem.exit.thread

cvLs_AccessLMem.exit.thread:                      ; preds = %9, %4, %12, %11
  %.0 = phi i32 [ -3, %11 ], [ 0, %12 ], [ -2, %9 ], [ -1, %4 ]
  ret i32 %.0
}